target datalayout = "e-m:e-p270:32:32-p271:32:32-p272:64:64-i64:64-i128:128-f80:128-n8:16:32:64-S128"
target triple = "x86_64-pc-linux-gnu"

%struct.AVStream = type { ptr, i32, i32, ptr, ptr, %struct.AVRational, i64, i64, i64, i32, i32, %struct.AVRational, ptr, %struct.AVRational, %struct.AVPacket, i32, %struct.AVRational, i32 }
%struct.AVPacket = type { ptr, i64, i64, ptr, i32, i32, i32, ptr, i32, i64, i64, ptr, ptr, %struct.AVRational }
%struct.AVRational = type { i32, i32 }
%struct.AVCodecParameters = type { i32, i32, i32, ptr, i32, ptr, i32, i32, i64, i32, i32, i32, i32, i32, i32, %struct.AVRational, %struct.AVRational, i32, i32, i32, i32, i32, i32, i32, %struct.AVChannelLayout, i32, i32, i32, i32, i32, i32 }
%struct.AVChannelLayout = type { i32, i32, %union.anon, ptr }
%union.anon = type { i64 }
%struct.MpegTSContext = type { ptr, ptr, i32, i64, i32, i32, i32, i64, i64, i32, ptr, i64, i32, i32, i32, i32, i32, i32, i32, i32, i32, ptr, [8192 x i8], [8192 x ptr], i32, ptr, [32 x ptr] }
%struct.Program = type { i32, i32, [130 x i32], i32, [128 x %struct.Stream], i32 }
%struct.Stream = type { i32, i32 }
%struct.AVFormatContext = type { ptr, ptr, ptr, ptr, ptr, i32, i32, ptr, i32, ptr, i32, ptr, ptr, i64, i64, i64, i32, i32, i32, i64, i64, ptr, i32, i32, ptr, i32, i32, i32, i32, ptr, i64, i32, i32, %struct.AVIOInterruptCB, i32, i32, i32, i32, i64, i32, i32, i32, i32, i32, i32, i32, i32, i32, i32, i32, i32, i64, i32, i32, i32, i32, i32, ptr, ptr, ptr, ptr, i32, ptr, ptr, ptr, ptr, i32, ptr, ptr, i64, ptr, ptr, ptr, i64 }
%struct.AVIOInterruptCB = type { ptr, ptr }

@.str.50 = private unnamed_addr constant [60 x i8] c"re-using existing %s stream %d (pid=0x%x) for new pid=0x%x\0A\00", align 1

; Function Attrs: nounwind uwtable
define internal ptr @find_matching_stream(ptr noundef %0, i32 noundef %1, i32 noundef %2, i32 noundef %3, i32 noundef %4, ptr noundef %5) #0 {
  %7 = alloca ptr, align 8
  %8 = alloca i32, align 4
  %9 = alloca i32, align 4
  %10 = alloca i32, align 4
  %11 = alloca i32, align 4
  %12 = alloca ptr, align 8
  %13 = alloca ptr, align 8
  %14 = alloca ptr, align 8
  %15 = alloca i32, align 4
  store ptr %0, ptr %7, align 8, !tbaa !20
  store i32 %1, ptr %8, align 4, !tbaa !11
  store i32 %2, ptr %9, align 4, !tbaa !11
  store i32 %3, ptr %10, align 4, !tbaa !11
  store i32 %4, ptr %11, align 4, !tbaa !11
  store ptr %5, ptr %12, align 8, !tbaa !135
  call void @llvm.lifetime.start.p0(i64 8, ptr %13) #12
  %16 = load ptr, ptr %7, align 8, !tbaa !20
  %17 = getelementptr inbounds nuw %struct.MpegTSContext, ptr %16, i32 0, i32 1
  %18 = load ptr, ptr %17, align 8, !tbaa !72
  store ptr %18, ptr %13, align 8, !tbaa !4
  call void @llvm.lifetime.start.p0(i64 8, ptr %14) #12
  store ptr null, ptr %14, align 8, !tbaa !9
  %19 = load i32, ptr %10, align 4, !tbaa !11
  %20 = icmp ne i32 %19, 0
  br i1 %20, label %21, label %66

21:                                               ; preds = %6
  call void @llvm.lifetime.start.p0(i64 4, ptr %15) #12
  store i32 0, ptr %15, align 4, !tbaa !11
  br label %22

22:                                               ; preds = %62, %21
  %23 = load i32, ptr %15, align 4, !tbaa !11
  %24 = load ptr, ptr %12, align 8, !tbaa !135
  %25 = getelementptr inbounds nuw %struct.Program, ptr %24, i32 0, i32 3
  %26 = load i32, ptr %25, align 4, !tbaa !251
  %27 = icmp ult i32 %23, %26
  br i1 %27, label %29, label %28

28:                                               ; preds = %22
  call void @llvm.lifetime.end.p0(i64 4, ptr %15) #12
  br label %65

29:                                               ; preds = %22
  %30 = load ptr, ptr %12, align 8, !tbaa !135
  %31 = getelementptr inbounds nuw %struct.Program, ptr %30, i32 0, i32 4
  %32 = load i32, ptr %15, align 4, !tbaa !11
  %33 = sext i32 %32 to i64
  %34 = getelementptr inbounds [128 x %struct.Stream], ptr %31, i64 0, i64 %33
  %35 = getelementptr inbounds nuw %struct.Stream, ptr %34, i32 0, i32 1
  %36 = load i32, ptr %35, align 4, !tbaa !250
  %37 = load i32, ptr %10, align 4, !tbaa !11
  %38 = icmp eq i32 %36, %37
  br i1 %38, label %39, label %61

39:                                               ; preds = %29
  %40 = load ptr, ptr %14, align 8, !tbaa !9
  %41 = icmp ne ptr %40, null
  br i1 %41, label %42, label %46

42:                                               ; preds = %39
  %43 = load i32, ptr %11, align 4, !tbaa !11
  %44 = load i32, ptr %15, align 4, !tbaa !11
  %45 = icmp eq i32 %43, %44
  br i1 %45, label %46, label %60

46:                                               ; preds = %42, %39
  %47 = load ptr, ptr %13, align 8, !tbaa !4
  %48 = getelementptr inbounds nuw %struct.AVFormatContext, ptr %47, i32 0, i32 7
  %49 = load ptr, ptr %48, align 8, !tbaa !200
  %50 = load ptr, ptr %12, align 8, !tbaa !135
  %51 = getelementptr inbounds nuw %struct.Program, ptr %50, i32 0, i32 4
  %52 = load i32, ptr %15, align 4, !tbaa !11
  %53 = sext i32 %52 to i64
  %54 = getelementptr inbounds [128 x %struct.Stream], ptr %51, i64 0, i64 %53
  %55 = getelementptr inbounds nuw %struct.Stream, ptr %54, i32 0, i32 0
  %56 = load i32, ptr %55, align 4, !tbaa !248
  %57 = sext i32 %56 to i64
  %58 = getelementptr inbounds ptr, ptr %49, i64 %57
  %59 = load ptr, ptr %58, align 8, !tbaa !9
  store ptr %59, ptr %14, align 8, !tbaa !9
  br label %60

60:                                               ; preds = %46, %42
  br label %61

61:                                               ; preds = %60, %29
  br label %62

62:                                               ; preds = %61
  %63 = load i32, ptr %15, align 4, !tbaa !11
  %64 = add nsw i32 %63, 1
  store i32 %64, ptr %15, align 4, !tbaa !11
  br label %22, !llvm.loop !262

65:                                               ; preds = %28
  br label %87

66:                                               ; preds = %6
  %67 = load i32, ptr %11, align 4, !tbaa !11
  %68 = load ptr, ptr %12, align 8, !tbaa !135
  %69 = getelementptr inbounds nuw %struct.Program, ptr %68, i32 0, i32 3
  %70 = load i32, ptr %69, align 4, !tbaa !251
  %71 = icmp ult i32 %67, %70
  br i1 %71, label %72, label %86

72:                                               ; preds = %66
  %73 = load ptr, ptr %13, align 8, !tbaa !4
  %74 = getelementptr inbounds nuw %struct.AVFormatContext, ptr %73, i32 0, i32 7
  %75 = load ptr, ptr %74, align 8, !tbaa !200
  %76 = load ptr, ptr %12, align 8, !tbaa !135
  %77 = getelementptr inbounds nuw %struct.Program, ptr %76, i32 0, i32 4
  %78 = load i32, ptr %11, align 4, !tbaa !11
  %79 = sext i32 %78 to i64
  %80 = getelementptr inbounds [128 x %struct.Stream], ptr %77, i64 0, i64 %79
  %81 = getelementptr inbounds nuw %struct.Stream, ptr %80, i32 0, i32 0
  %82 = load i32, ptr %81, align 4, !tbaa !248
  %83 = sext i32 %82 to i64
  %84 = getelementptr inbounds ptr, ptr %75, i64 %83
  %85 = load ptr, ptr %84, align 8, !tbaa !9
  store ptr %85, ptr %14, align 8, !tbaa !9
  br label %86

86:                                               ; preds = %72, %66
  br label %87

87:                                               ; preds = %86, %65
  %88 = load ptr, ptr %14, align 8, !tbaa !9
  %89 = icmp ne ptr %88, null
  br i1 %89, label %90, label %107

90:                                               ; preds = %87
  %91 = load ptr, ptr %7, align 8, !tbaa !20
  %92 = getelementptr inbounds nuw %struct.MpegTSContext, ptr %91, i32 0, i32 1
  %93 = load ptr, ptr %92, align 8, !tbaa !72
  %94 = load ptr, ptr %14, align 8, !tbaa !9
  %95 = getelementptr inbounds nuw %struct.AVStream, ptr %94, i32 0, i32 3
  %96 = load ptr, ptr %95, align 8, !tbaa !24
  %97 = getelementptr inbounds nuw %struct.AVCodecParameters, ptr %96, i32 0, i32 0
  %98 = load i32, ptr %97, align 8, !tbaa !64
  %99 = call ptr @av_get_media_type_string(i32 noundef %98)
  %100 = load ptr, ptr %14, align 8, !tbaa !9
  %101 = getelementptr inbounds nuw %struct.AVStream, ptr %100, i32 0, i32 1
  %102 = load i32, ptr %101, align 8, !tbaa !161
  %103 = load ptr, ptr %14, align 8, !tbaa !9
  %104 = getelementptr inbounds nuw %struct.AVStream, ptr %103, i32 0, i32 2
  %105 = load i32, ptr %104, align 4, !tbaa !76
  %106 = load i32, ptr %8, align 4, !tbaa !11
  call void (ptr, i32, ptr, ...) @av_log(ptr noundef %93, i32 noundef 40, ptr noundef @.str.50, ptr noundef %99, i32 noundef %102, i32 noundef %105, i32 noundef %106)
  br label %107

107:                                              ; preds = %90, %87
  %108 = load ptr, ptr %14, align 8, !tbaa !9
  call void @llvm.lifetime.end.p0(i64 8, ptr %14) #12
  call void @llvm.lifetime.end.p0(i64 8, ptr %13) #12
  ret ptr %108
}