; Function Attrs: nounwind uwtable
define internal fastcc ptr @find_matching_stream(ptr %.8.val, i32 noundef range(i32 0, 8192) %0, i32 noundef range(i32 -1094995528, 257) %1, i32 noundef range(i32 -2147483648, 128) %2, ptr noundef nonnull readonly captures(none) %3) unnamed_addr #0 {
  %.not = icmp eq i32 %1, 0
  %5 = getelementptr inbounds nuw i8, ptr %3, i64 528
  %6 = load i32, ptr %5, align 4, !tbaa !128
  br i1 %.not, label %24, label %.preheader

.preheader:                                       ; preds = %4
  %.not6 = icmp eq i32 %6, 0
  br i1 %.not6, label %.thread, label %.lr.ph

.lr.ph:                                           ; preds = %.preheader
  %7 = getelementptr inbounds nuw i8, ptr %3, i64 532
  %8 = getelementptr inbounds nuw i8, ptr %.8.val, i64 48
  %9 = zext i32 %2 to i64
  %wide.trip.count = zext i32 %6 to i64
  br label %10

10:                                               ; preds = %.lr.ph, %23
  %indvars.iv = phi i64 [ 0, %.lr.ph ], [ %indvars.iv.next, %23 ]
  %.0254 = phi ptr [ null, %.lr.ph ], [ %.1, %23 ]
  %11 = getelementptr inbounds nuw [128 x %struct.Stream], ptr %7, i64 0, i64 %indvars.iv
  %12 = getelementptr inbounds nuw i8, ptr %11, i64 4
  %13 = load i32, ptr %12, align 4, !tbaa !234
  %14 = icmp eq i32 %13, %1
  br i1 %14, label %15, label %23

15:                                               ; preds = %10
  %.not29 = icmp eq ptr %.0254, null
  %16 = icmp eq i64 %indvars.iv, %9
  %or.cond = or i1 %.not29, %16
  br i1 %or.cond, label %17, label %23

17:                                               ; preds = %15
  %18 = load ptr, ptr %8, align 8, !tbaa !204
  %19 = load i32, ptr %11, align 4, !tbaa !232
  %20 = sext i32 %19 to i64
  %21 = getelementptr inbounds ptr, ptr %18, i64 %20
  %22 = load ptr, ptr %21, align 8, !tbaa !205
  br label %23

23:                                               ; preds = %15, %10, %17
  %.1 = phi ptr [ %22, %17 ], [ %.0254, %10 ], [ %.0254, %15 ]
  %indvars.iv.next = add nuw nsw i64 %indvars.iv, 1
  %exitcond.not = icmp eq i64 %indvars.iv.next, %wide.trip.count
  br i1 %exitcond.not, label %.loopexit, label %10, !llvm.loop !238

24:                                               ; preds = %4
  %25 = icmp ult i32 %2, %6
  br i1 %25, label %26, label %.thread

26:                                               ; preds = %24
  %27 = getelementptr inbounds nuw i8, ptr %.8.val, i64 48
  %28 = load ptr, ptr %27, align 8, !tbaa !204
  %29 = getelementptr inbounds nuw i8, ptr %3, i64 532
  %30 = sext i32 %2 to i64
  %31 = getelementptr inbounds [128 x %struct.Stream], ptr %29, i64 0, i64 %30
  %32 = load i32, ptr %31, align 4, !tbaa !232
  %33 = sext i32 %32 to i64
  %34 = getelementptr inbounds ptr, ptr %28, i64 %33
  %35 = load ptr, ptr %34, align 8, !tbaa !205
  br label %.loopexit

.loopexit:                                        ; preds = %23, %26
  %.2 = phi ptr [ %35, %26 ], [ %.1, %23 ]
  %.not28 = icmp eq ptr %.2, null
  br i1 %.not28, label %.thread, label %36

36:                                               ; preds = %.loopexit
  %37 = getelementptr inbounds nuw i8, ptr %.2, i64 16
  %38 = load ptr, ptr %37, align 8, !tbaa !10
  %39 = load i32, ptr %38, align 8, !tbaa !37
  %40 = tail call ptr @av_get_media_type_string(i32 noundef %39) #12
  %41 = getelementptr inbounds nuw i8, ptr %.2, i64 8
  %42 = load i32, ptr %41, align 8, !tbaa !158
  %43 = getelementptr inbounds nuw i8, ptr %.2, i64 12
  %44 = load i32, ptr %43, align 4, !tbaa !78
  tail call void (ptr, i32, ptr, ...) @av_log(ptr noundef %.8.val, i32 noundef 40, ptr noundef nonnull @.str.50, ptr noundef %40, i32 noundef %42, i32 noundef %44, i32 noundef %0) #12
  br label %.thread

.thread:                                          ; preds = %.preheader, %24, %36, %.loopexit
  %.23 = phi ptr [ %.2, %36 ], [ null, %.loopexit ], [ null, %24 ], [ null, %.preheader ]
  ret ptr %.23
}